; Function Attrs: nounwind uwtable
define dso_local noundef ptr @aclcopy(ptr noundef readonly captures(none) %0) local_unnamed_addr #0 {
  %2 = getelementptr inbounds nuw i8, ptr %0, i64 16
  %3 = load i32, ptr %2, align 4
  %4 = icmp slt i32 %3, 0
  br i1 %4, label %5, label %8

5:                                                ; preds = %1
  %6 = tail call zeroext i1 @errstart_cold(i32 noundef 21, ptr noundef null) #15
  tail call void @llvm.assume(i1 %6)
  %7 = tail call i32 (ptr, ...) @errmsg_internal(ptr noundef nonnull @.str.37, i32 noundef %3) #14
  tail call void @errfinish(ptr noundef nonnull @.str.1, i32 noundef 416, ptr noundef nonnull @__func__.allocacl) #14
  unreachable

8:                                                ; preds = %1
  %9 = zext nneg i32 %3 to i64
  %10 = shl nuw nsw i64 %9, 4
  %11 = add nuw nsw i64 %10, 24
  %12 = tail call ptr @palloc0(i64 noundef %11) #14
  %13 = trunc i64 %11 to i32
  %14 = shl i32 %13, 2
  store i32 %14, ptr %12, align 4
  %15 = getelementptr inbounds nuw i8, ptr %12, i64 4
  store i32 1, ptr %15, align 4
  %16 = getelementptr inbounds nuw i8, ptr %12, i64 8
  store i32 0, ptr %16, align 4
  %17 = getelementptr inbounds nuw i8, ptr %12, i64 12
  store i32 1033, ptr %17, align 4
  %18 = getelementptr inbounds nuw i8, ptr %12, i64 16
  %19 = getelementptr inbounds nuw i8, ptr %12, i64 20
  store i32 1, ptr %19, align 4
  store i32 %3, ptr %18, align 4
  %20 = getelementptr inbounds nuw i8, ptr %0, i64 8
  %21 = load i32, ptr %20, align 4
  %.not12 = icmp eq i32 %21, 0
  br i1 %.not12, label %24, label %22

22:                                               ; preds = %8
  %23 = sext i32 %21 to i64
  br label %31

24:                                               ; preds = %8
  %25 = getelementptr inbounds nuw i8, ptr %0, i64 4
  %26 = load i32, ptr %25, align 4
  %27 = sext i32 %26 to i64
  %28 = shl nsw i64 %27, 3
  %29 = add nsw i64 %28, 23
  %30 = and i64 %29, -8
  br label %31

31:                                               ; preds = %24, %22
  %32 = phi i64 [ %23, %22 ], [ %30, %24 ]
  %33 = getelementptr inbounds nuw i8, ptr %12, i64 24
  %34 = getelementptr inbounds nuw i8, ptr %0, i64 %32
  %35 = load i32, ptr %2, align 4
  %36 = sext i32 %35 to i64
  %37 = shl nsw i64 %36, 4
  tail call void @llvm.memcpy.p0.p0.i64(ptr nonnull align 8 %33, ptr align 8 %34, i64 %37, i1 false)
  ret ptr %12
}